target datalayout = "e-m:e-p270:32:32-p271:32:32-p272:64:64-i64:64-i128:128-f80:128-n8:16:32:64-S128"
target triple = "x86_64-pc-linux-gnu"

; Function Attrs: nounwind uwtable
define dso_local i32 @uv_os_unsetenv(ptr noundef %0) #0 {
  %2 = alloca i32, align 4
  %3 = alloca ptr, align 8
  store ptr %0, ptr %3, align 8
  %4 = load ptr, ptr %3, align 8
  %5 = icmp eq ptr %4, null
  br i1 %5, label %6, label %7

6:                                                ; preds = %1
  store i32 -22, ptr %2, align 4
  br label %16

7:                                                ; preds = %1
  %8 = load ptr, ptr %3, align 8
  %9 = call i32 @unsetenv(ptr noundef %8) #11
  %10 = icmp ne i32 %9, 0
  br i1 %10, label %11, label %15

11:                                               ; preds = %7
  %12 = call ptr @__errno_location() #12
  %13 = load i32, ptr %12, align 4
  %14 = sub nsw i32 0, %13
  store i32 %14, ptr %2, align 4
  br label %16

15:                                               ; preds = %7
  store i32 0, ptr %2, align 4
  br label %16

16:                                               ; preds = %15, %11, %6
  %17 = load i32, ptr %2, align 4
  ret i32 %17
}