; Function Attrs: nofree nounwind uwtable
define dso_local range(i32 -2147483647, -2147483648) i32 @uv_os_unsetenv(ptr noundef readonly captures(address_is_null) %0) local_unnamed_addr #8 {
  %2 = icmp eq ptr %0, null
  br i1 %2, label %9, label %3

3:                                                ; preds = %1
  %4 = tail call i32 @unsetenv(ptr noundef nonnull %0) #23
  %.not = icmp eq i32 %4, 0
  br i1 %.not, label %9, label %5

5:                                                ; preds = %3
  %6 = tail call ptr @__errno_location() #24
  %7 = load i32, ptr %6, align 4
  %8 = sub nsw i32 0, %7
  br label %9

9:                                                ; preds = %3, %1, %5
  %.0 = phi i32 [ %8, %5 ], [ -22, %1 ], [ 0, %3 ]
  ret i32 %.0
}